target datalayout = "e-m:e-p270:32:32-p271:32:32-p272:64:64-i64:64-i128:128-f80:128-n8:16:32:64-S128"
target triple = "x86_64-pc-linux-gnu"

%struct.URLContext = type { ptr, ptr, ptr, ptr, i32, i32, i32, i32, %struct.AVIOInterruptCB, i64, ptr, ptr, i32 }
%struct.AVIOInterruptCB = type { ptr, ptr }
%struct.SubfileContext = type { ptr, ptr, i64, i64, i64 }

@.str.2 = private unnamed_addr constant [18 x i8] c"end before start\0A\00", align 1
@.str.3 = private unnamed_addr constant [9 x i8] c"subfile:\00", align 1
@.str.4 = private unnamed_addr constant [32 x i8] c"Impossible to seek in file: %s\0A\00", align 1

; Function Attrs: inlinehint nounwind uwtable
define internal ptr @av_make_error_string(ptr noundef %0, i64 noundef %1, i32 noundef %2) #3 {
  %4 = alloca ptr, align 8
  %5 = alloca i64, align 8
  %6 = alloca i32, align 4
  store ptr %0, ptr %4, align 8, !tbaa !9
  store i64 %1, ptr %5, align 8, !tbaa !30
  store i32 %2, ptr %6, align 4, !tbaa !11
  %7 = load i32, ptr %6, align 4, !tbaa !11
  %8 = load ptr, ptr %4, align 8, !tbaa !9
  %9 = load i64, ptr %5, align 8, !tbaa !30
  %10 = call i32 @av_strerror(i32 noundef %7, ptr noundef %8, i64 noundef %9)
  %11 = load ptr, ptr %4, align 8, !tbaa !9
  ret ptr %11
}

; Function Attrs: inlinehint nounwind uwtable
define internal i64 @ffurl_seek(ptr noundef %0, i64 noundef %1, i32 noundef %2) #3 {
  %4 = alloca ptr, align 8
  %5 = alloca i64, align 8
  %6 = alloca i32, align 4
  store ptr %0, ptr %4, align 8, !tbaa !4
  store i64 %1, ptr %5, align 8, !tbaa !30
  store i32 %2, ptr %6, align 4, !tbaa !11
  %7 = load ptr, ptr %4, align 8, !tbaa !4
  %8 = load i64, ptr %5, align 8, !tbaa !30
  %9 = load i32, ptr %6, align 4, !tbaa !11
  %10 = call i64 @ffurl_seek2(ptr noundef %7, i64 noundef %8, i32 noundef %9)
  ret i64 %10
}

; Function Attrs: nounwind uwtable
define internal i32 @slave_seek(ptr noundef %0) #0 {
  %2 = alloca i32, align 4
  %3 = alloca ptr, align 8
  %4 = alloca ptr, align 8
  %5 = alloca i64, align 8
  %6 = alloca [64 x i8], align 1
  %7 = alloca i32, align 4
  store ptr %0, ptr %3, align 8, !tbaa !4
  call void @llvm.lifetime.start.p0(i64 8, ptr %4) #6
  %8 = load ptr, ptr %3, align 8, !tbaa !4
  %9 = getelementptr inbounds nuw %struct.URLContext, ptr %8, i32 0, i32 2
  %10 = load ptr, ptr %9, align 8, !tbaa !16
  store ptr %10, ptr %4, align 8, !tbaa !22
  call void @llvm.lifetime.start.p0(i64 8, ptr %5) #6
  %11 = load ptr, ptr %4, align 8, !tbaa !22
  %12 = getelementptr inbounds nuw %struct.SubfileContext, ptr %11, i32 0, i32 1
  %13 = load ptr, ptr %12, align 8, !tbaa !31
  %14 = load ptr, ptr %4, align 8, !tbaa !22
  %15 = getelementptr inbounds nuw %struct.SubfileContext, ptr %14, i32 0, i32 4
  %16 = load i64, ptr %15, align 8, !tbaa !29
  %17 = call i64 @ffurl_seek(ptr noundef %13, i64 noundef %16, i32 noundef 0)
  store i64 %17, ptr %5, align 8, !tbaa !30
  %18 = load ptr, ptr %4, align 8, !tbaa !22
  %19 = getelementptr inbounds nuw %struct.SubfileContext, ptr %18, i32 0, i32 4
  %20 = load i64, ptr %19, align 8, !tbaa !29
  %21 = icmp ne i64 %17, %20
  br i1 %21, label %22, label %34

22:                                               ; preds = %1
  %23 = load i64, ptr %5, align 8, !tbaa !30
  %24 = icmp sge i64 %23, 0
  br i1 %24, label %25, label %26

25:                                               ; preds = %22
  store i64 -558323010, ptr %5, align 8, !tbaa !30
  br label %26

26:                                               ; preds = %25, %22
  %27 = load ptr, ptr %3, align 8, !tbaa !4
  call void @llvm.memset.p0.i64(ptr align 1 %6, i8 0, i64 64, i1 false)
  %28 = getelementptr inbounds [64 x i8], ptr %6, i64 0, i64 0
  %29 = load i64, ptr %5, align 8, !tbaa !30
  %30 = trunc i64 %29 to i32
  %31 = call ptr @av_make_error_string(ptr noundef %28, i64 noundef 64, i32 noundef %30)
  call void (ptr, i32, ptr, ...) @av_log(ptr noundef %27, i32 noundef 16, ptr noundef @.str.4, ptr noundef %31)
  %32 = load i64, ptr %5, align 8, !tbaa !30
  %33 = trunc i64 %32 to i32
  store i32 %33, ptr %2, align 4
  store i32 1, ptr %7, align 4
  br label %35

34:                                               ; preds = %1
  store i32 0, ptr %2, align 4
  store i32 1, ptr %7, align 4
  br label %35

35:                                               ; preds = %34, %26
  call void @llvm.lifetime.end.p0(i64 8, ptr %5) #6
  call void @llvm.lifetime.end.p0(i64 8, ptr %4) #6
  %36 = load i32, ptr %2, align 4
  ret i32 %36
}

; Function Attrs: nounwind uwtable
define internal i32 @subfile_open(ptr noundef %0, ptr noundef %1, i32 noundef %2, ptr noundef %3) #0 {
  %5 = alloca i32, align 4
  %6 = alloca ptr, align 8
  %7 = alloca ptr, align 8
  %8 = alloca i32, align 4
  %9 = alloca ptr, align 8
  %10 = alloca ptr, align 8
  %11 = alloca i32, align 4
  %12 = alloca i32, align 4
  store ptr %0, ptr %6, align 8, !tbaa !4
  store ptr %1, ptr %7, align 8, !tbaa !9
  store i32 %2, ptr %8, align 4, !tbaa !11
  store ptr %3, ptr %9, align 8, !tbaa !13
  call void @llvm.lifetime.start.p0(i64 8, ptr %10) #6
  %13 = load ptr, ptr %6, align 8, !tbaa !4
  %14 = getelementptr inbounds nuw %struct.URLContext, ptr %13, i32 0, i32 2
  %15 = load ptr, ptr %14, align 8, !tbaa !16
  store ptr %15, ptr %10, align 8, !tbaa !22
  call void @llvm.lifetime.start.p0(i64 4, ptr %11) #6
  %16 = load ptr, ptr %10, align 8, !tbaa !22
  %17 = getelementptr inbounds nuw %struct.SubfileContext, ptr %16, i32 0, i32 3
  %18 = load i64, ptr %17, align 8, !tbaa !24
  %19 = icmp ne i64 %18, 0
  br i1 %19, label %23, label %20

20:                                               ; preds = %4
  %21 = load ptr, ptr %10, align 8, !tbaa !22
  %22 = getelementptr inbounds nuw %struct.SubfileContext, ptr %21, i32 0, i32 3
  store i64 9223372036854775807, ptr %22, align 8, !tbaa !24
  br label %23

23:                                               ; preds = %20, %4
  %24 = load ptr, ptr %10, align 8, !tbaa !22
  %25 = getelementptr inbounds nuw %struct.SubfileContext, ptr %24, i32 0, i32 3
  %26 = load i64, ptr %25, align 8, !tbaa !24
  %27 = load ptr, ptr %10, align 8, !tbaa !22
  %28 = getelementptr inbounds nuw %struct.SubfileContext, ptr %27, i32 0, i32 2
  %29 = load i64, ptr %28, align 8, !tbaa !26
  %30 = icmp sle i64 %26, %29
  br i1 %30, label %31, label %33

31:                                               ; preds = %23
  %32 = load ptr, ptr %6, align 8, !tbaa !4
  call void (ptr, i32, ptr, ...) @av_log(ptr noundef %32, i32 noundef 16, ptr noundef @.str.2)
  store i32 -22, ptr %5, align 4
  store i32 1, ptr %12, align 4
  br label %70

33:                                               ; preds = %23
  %34 = load ptr, ptr %7, align 8, !tbaa !9
  %35 = call i32 @av_strstart(ptr noundef %34, ptr noundef @.str.3, ptr noundef %7)
  %36 = load ptr, ptr %10, align 8, !tbaa !22
  %37 = getelementptr inbounds nuw %struct.SubfileContext, ptr %36, i32 0, i32 1
  %38 = load ptr, ptr %7, align 8, !tbaa !9
  %39 = load i32, ptr %8, align 4, !tbaa !11
  %40 = load ptr, ptr %6, align 8, !tbaa !4
  %41 = getelementptr inbounds nuw %struct.URLContext, ptr %40, i32 0, i32 8
  %42 = load ptr, ptr %9, align 8, !tbaa !13
  %43 = load ptr, ptr %6, align 8, !tbaa !4
  %44 = getelementptr inbounds nuw %struct.URLContext, ptr %43, i32 0, i32 10
  %45 = load ptr, ptr %44, align 8, !tbaa !27
  %46 = load ptr, ptr %6, align 8, !tbaa !4
  %47 = getelementptr inbounds nuw %struct.URLContext, ptr %46, i32 0, i32 11
  %48 = load ptr, ptr %47, align 8, !tbaa !28
  %49 = load ptr, ptr %6, align 8, !tbaa !4
  %50 = call i32 @ffurl_open_whitelist(ptr noundef %37, ptr noundef %38, i32 noundef %39, ptr noundef %41, ptr noundef %42, ptr noundef %45, ptr noundef %48, ptr noundef %49)
  store i32 %50, ptr %11, align 4, !tbaa !11
  %51 = load i32, ptr %11, align 4, !tbaa !11
  %52 = icmp slt i32 %51, 0
  br i1 %52, label %53, label %55

53:                                               ; preds = %33
  %54 = load i32, ptr %11, align 4, !tbaa !11
  store i32 %54, ptr %5, align 4
  store i32 1, ptr %12, align 4
  br label %70

55:                                               ; preds = %33
  %56 = load ptr, ptr %10, align 8, !tbaa !22
  %57 = getelementptr inbounds nuw %struct.SubfileContext, ptr %56, i32 0, i32 2
  %58 = load i64, ptr %57, align 8, !tbaa !26
  %59 = load ptr, ptr %10, align 8, !tbaa !22
  %60 = getelementptr inbounds nuw %struct.SubfileContext, ptr %59, i32 0, i32 4
  store i64 %58, ptr %60, align 8, !tbaa !29
  %61 = load ptr, ptr %6, align 8, !tbaa !4
  %62 = call i32 @slave_seek(ptr noundef %61)
  store i32 %62, ptr %11, align 4, !tbaa !11
  %63 = icmp slt i32 %62, 0
  br i1 %63, label %64, label %69

64:                                               ; preds = %55
  %65 = load ptr, ptr %10, align 8, !tbaa !22
  %66 = getelementptr inbounds nuw %struct.SubfileContext, ptr %65, i32 0, i32 1
  %67 = call i32 @ffurl_closep(ptr noundef %66)
  %68 = load i32, ptr %11, align 4, !tbaa !11
  store i32 %68, ptr %5, align 4
  store i32 1, ptr %12, align 4
  br label %70

69:                                               ; preds = %55
  store i32 0, ptr %5, align 4
  store i32 1, ptr %12, align 4
  br label %70

70:                                               ; preds = %69, %64, %53, %31
  call void @llvm.lifetime.end.p0(i64 4, ptr %11) #6
  call void @llvm.lifetime.end.p0(i64 8, ptr %10) #6
  %71 = load i32, ptr %5, align 4
  ret i32 %71
}