; Function Attrs: nounwind uwtable
define internal range(i32 -2147483648, 1) i32 @subfile_open(ptr noundef %0, ptr noundef %1, i32 noundef %2, ptr noundef %3) #0 {
  %5 = alloca [64 x i8], align 1
  %6 = alloca ptr, align 8
  store ptr %1, ptr %6, align 8, !tbaa !4
  %7 = getelementptr inbounds nuw i8, ptr %0, i64 16
  %8 = load ptr, ptr %7, align 8, !tbaa !9
  %9 = getelementptr inbounds nuw i8, ptr %8, i64 24
  %10 = load i64, ptr %9, align 8, !tbaa !16
  %.not = icmp eq i64 %10, 0
  br i1 %.not, label %11, label %12

11:                                               ; preds = %4
  store i64 9223372036854775807, ptr %9, align 8, !tbaa !16
  br label %12

12:                                               ; preds = %11, %4
  %13 = phi i64 [ 9223372036854775807, %11 ], [ %10, %4 ]
  %14 = getelementptr inbounds nuw i8, ptr %8, i64 16
  %15 = load i64, ptr %14, align 8, !tbaa !19
  %.not22 = icmp sgt i64 %13, %15
  br i1 %.not22, label %17, label %16

16:                                               ; preds = %12
  tail call void (ptr, i32, ptr, ...) @av_log(ptr noundef nonnull %0, i32 noundef 16, ptr noundef nonnull @.str.2) #6
  br label %45

17:                                               ; preds = %12
  %18 = call i32 @av_strstart(ptr noundef %1, ptr noundef nonnull @.str.3, ptr noundef nonnull %6) #6
  %19 = getelementptr inbounds nuw i8, ptr %8, i64 8
  %20 = load ptr, ptr %6, align 8, !tbaa !4
  %21 = getelementptr inbounds nuw i8, ptr %0, i64 48
  %22 = getelementptr inbounds nuw i8, ptr %0, i64 72
  %23 = load ptr, ptr %22, align 8, !tbaa !20
  %24 = getelementptr inbounds nuw i8, ptr %0, i64 80
  %25 = load ptr, ptr %24, align 8, !tbaa !21
  %26 = call i32 @ffurl_open_whitelist(ptr noundef nonnull %19, ptr noundef %20, i32 noundef %2, ptr noundef nonnull %21, ptr noundef %3, ptr noundef %23, ptr noundef %25, ptr noundef nonnull %0) #6
  %27 = icmp slt i32 %26, 0
  br i1 %27, label %45, label %28

28:                                               ; preds = %17
  %29 = load i64, ptr %14, align 8, !tbaa !19
  %30 = getelementptr inbounds nuw i8, ptr %8, i64 32
  store i64 %29, ptr %30, align 8, !tbaa !22
  call void @llvm.lifetime.start.p0(i64 64, ptr nonnull %5)
  %31 = load ptr, ptr %7, align 8, !tbaa !9
  %32 = getelementptr inbounds nuw i8, ptr %31, i64 8
  %33 = load ptr, ptr %32, align 8, !tbaa !23
  %34 = getelementptr inbounds nuw i8, ptr %31, i64 32
  %35 = load i64, ptr %34, align 8, !tbaa !22
  %36 = call i64 @ffurl_seek2(ptr noundef %33, i64 noundef %35, i32 noundef 0) #6
  %37 = load i64, ptr %34, align 8, !tbaa !22
  %.not.i = icmp eq i64 %36, %37
  br i1 %.not.i, label %slave_seek.exit.thread, label %slave_seek.exit

slave_seek.exit.thread:                           ; preds = %28
  call void @llvm.lifetime.end.p0(i64 64, ptr nonnull %5)
  br label %45

slave_seek.exit:                                  ; preds = %28
  %38 = icmp sgt i64 %36, -1
  call void @llvm.memset.p0.i64(ptr noundef nonnull align 1 dereferenceable(64) %5, i8 0, i64 64, i1 false)
  %39 = trunc i64 %36 to i32
  %40 = select i1 %38, i32 -558323010, i32 %39
  %41 = call i32 @av_strerror(i32 noundef %40, ptr noundef nonnull %5, i64 noundef 64) #6
  call void (ptr, i32, ptr, ...) @av_log(ptr noundef nonnull %0, i32 noundef 16, ptr noundef nonnull @.str.4, ptr noundef nonnull %5) #6
  call void @llvm.lifetime.end.p0(i64 64, ptr nonnull %5)
  %42 = icmp slt i32 %40, 0
  br i1 %42, label %43, label %45

43:                                               ; preds = %slave_seek.exit
  %44 = call i32 @ffurl_closep(ptr noundef nonnull %19) #6
  br label %45

45:                                               ; preds = %slave_seek.exit.thread, %slave_seek.exit, %17, %43, %16
  %.0 = phi i32 [ -22, %16 ], [ %40, %43 ], [ %26, %17 ], [ 0, %slave_seek.exit ], [ 0, %slave_seek.exit.thread ]
  ret i32 %.0
}